; Function Attrs: nounwind uwtable
define noalias nonnull ptr @l_Lean_Meta_instantiateStructDefaultValueFn_x3f_go_x3f___at___private_Lean_Elab_Print_0__Lean_Elab_Command_printStructure___spec__36___lambda__1(ptr noundef %0, ptr noundef %1, ptr readnone captures(none) %2, ptr readnone captures(none) %3, ptr readnone captures(none) %4, ptr readnone captures(none) %5, ptr readnone captures(none) %6, ptr readnone captures(none) %7, ptr noundef %8) local_unnamed_addr #0 {
  tail call void @lean_inc_heartbeat() #5
  %10 = tail call noalias ptr @mi_malloc_small(i64 noundef 24) #5
  %11 = icmp eq ptr %10, null
  br i1 %11, label %12, label %lean_alloc_ctor.exit

12:                                               ; preds = %9
  tail call void @lean_internal_panic_out_of_memory() #6
  unreachable

lean_alloc_ctor.exit:                             ; preds = %9
  %13 = getelementptr inbounds nuw i8, ptr %10, i64 4
  store i32 1, ptr %10, align 4, !tbaa !8
  store i32 131096, ptr %13, align 4
  %14 = getelementptr inbounds nuw i8, ptr %10, i64 8
  store ptr %0, ptr %14, align 8, !tbaa !4
  %15 = getelementptr inbounds nuw i8, ptr %10, i64 16
  store ptr %1, ptr %15, align 8, !tbaa !4
  tail call void @lean_inc_heartbeat() #5
  %16 = tail call noalias ptr @mi_malloc_small(i64 noundef 16) #5
  %17 = icmp eq ptr %16, null
  br i1 %17, label %18, label %lean_alloc_ctor.exit11

18:                                               ; preds = %lean_alloc_ctor.exit
  tail call void @lean_internal_panic_out_of_memory() #6
  unreachable

lean_alloc_ctor.exit11:                           ; preds = %lean_alloc_ctor.exit
  %19 = getelementptr inbounds nuw i8, ptr %16, i64 4
  store i32 1, ptr %16, align 4, !tbaa !8
  store i32 16842768, ptr %19, align 4
  %20 = getelementptr inbounds nuw i8, ptr %16, i64 8
  store ptr %10, ptr %20, align 8, !tbaa !4
  tail call void @lean_inc_heartbeat() #5
  %21 = tail call noalias ptr @mi_malloc_small(i64 noundef 24) #5
  %22 = icmp eq ptr %21, null
  br i1 %22, label %23, label %lean_alloc_ctor.exit12

23:                                               ; preds = %lean_alloc_ctor.exit11
  tail call void @lean_internal_panic_out_of_memory() #6
  unreachable

lean_alloc_ctor.exit12:                           ; preds = %lean_alloc_ctor.exit11
  %24 = getelementptr inbounds nuw i8, ptr %21, i64 4
  store i32 1, ptr %21, align 4, !tbaa !8
  store i32 131096, ptr %24, align 4
  %25 = getelementptr inbounds nuw i8, ptr %21, i64 8
  store ptr %16, ptr %25, align 8, !tbaa !4
  %26 = getelementptr inbounds nuw i8, ptr %21, i64 16
  store ptr %8, ptr %26, align 8, !tbaa !4
  ret ptr %21
}